ccopy_reg
_reconstructor
p0
(csklearn.linear_model.logistic
LogisticRegression
p1
c__builtin__
object
p2
Ntp3
Rp4
(dp5
S'loss'
p6
S'lr'
p7
sS'C'
p8
I1000000000000000000
sS'verbose'
p9
I0
sS'dual'
p10
I00
sS'fit_intercept'
p11
I01
sS'penalty'
p12
S'l2'
p13
sS'multi_class'
p14
S'ovr'
p15
sS'random_state'
p16
NsS'tol'
p17
F1e-21
sS'class_weight'
p18
NsS'intercept_scaling'
p19
I1
sb.