(dp0
S'METTS MARK'
p1
(dp2
S'to_messages'
p3
I807
sS'deferral_payments'
p4
S'NaN'
p5
sS'financial_aggregate'
p6
S'NaN'
p7
sS'expenses'
p8
I94299
sS'fraction_to_poi_email'
p9
F0.034482758620689655
sS'poi'
p10
I00
sS'deferred_income'
p11
g5
sS'email_address'
p12
S'mark.metts@enron.com'
p13
sS'long_term_incentive'
p14
g5
sS'restricted_stock_deferred'
p15
g5
sS'shared_receipt_with_poi'
p16
I702
sS'loan_advances'
p17
g5
sS'from_messages'
p18
I29
sS'other'
p19
I1740
sS'director_fees'
p20
g5
sS'fraction_from_poi_email'
p21
F0.04708798017348203
sS'bonus'
p22
I600000
sS'total_stock_value'
p23
I585062
sS'from_poi_to_this_person'
p24
I38
sS'from_this_person_to_poi'
p25
I1
sS'restricted_stock'
p26
I585062
sS'salary'
p27
I365788
sS'total_payments'
p28
I1061827
sS'exercised_stock_options'
p29
g5
ssS'BAXTER JOHN C'
p30
(dp31
g3
g5
sg4
I1295738
sg6
I17570904
sg8
I11200
sg9
F0.0
sg10
I00
sg11
I-1386055
sg12
g5
sg14
I1586055
sg15
g5
sg16
g5
sg17
g5
sg18
g5
sg19
I2660303
sg20
g5
sg21
F0.0
sg22
I1200000
sg23
I10623258
sg24
g5
sg25
g5
sg26
I3942714
sg27
I267102
sg28
I5634343
sg29
I6680544
ssS'ELLIOTT STEVEN'
p32
(dp33
g3
g5
sg4
g5
sg6
I11740020
sg8
I78552
sg9
F0.0
sg10
I00
sg11
I-400729
sg12
S'steven.elliott@enron.com'
p34
sg14
g5
sg15
g5
sg16
g5
sg17
g5
sg18
g5
sg19
I12961
sg20
g5
sg21
F0.0
sg22
I350000
sg23
I6678735
sg24
g5
sg25
g5
sg26
I1788391
sg27
I170941
sg28
I211725
sg29
I4890344
ssS'CORDES WILLIAM R'
p35
(dp36
g3
I764
sg4
g5
sg6
g7
sg8
g5
sg9
F0.0
sg10
I00
sg11
g5
sg12
S'bill.cordes@enron.com'
p37
sg14
g5
sg15
g5
sg16
I58
sg17
g5
sg18
I12
sg19
g5
sg20
g5
sg21
F0.013089005235602094
sg22
g5
sg23
I1038185
sg24
I10
sg25
I0
sg26
I386335
sg27
g5
sg28
g5
sg29
I651850
ssS'HANNON KEVIN P'
p38
(dp39
g3
I1045
sg4
g5
sg6
I12172359
sg8
I34039
sg9
F0.65625
sg10
I01
sg11
I-3117011
sg12
S'kevin.hannon@enron.com'
p40
sg14
I1617011
sg15
g5
sg16
I1035
sg17
g5
sg18
I32
sg19
I11350
sg20
g5
sg21
F0.03062200956937799
sg22
I1500000
sg23
I6391065
sg24
I32
sg25
I21
sg26
I853064
sg27
I243293
sg28
I288682
sg29
I5538001
ssS'MORDAUNT KRISTINA M'
p41
(dp42
g3
g5
sg4
g5
sg6
g7
sg8
I35018
sg9
F0.0
sg10
I00
sg11
g5
sg12
S'kristina.mordaunt@enron.com'
p43
sg14
g5
sg15
g5
sg16
g5
sg17
g5
sg18
g5
sg19
I1411
sg20
g5
sg21
F0.0
sg22
I325000
sg23
I208510
sg24
g5
sg25
g5
sg26
I208510
sg27
I267093
sg28
I628522
sg29
g5
ssS'MEYER ROCKFORD G'
p44
(dp45
g3
I232
sg4
I1848227
sg6
g7
sg8
g5
sg9
F0.0
sg10
I00
sg11
g5
sg12
S'rockford.meyer@enron.com'
p46
sg14
g5
sg15
g5
sg16
I22
sg17
g5
sg18
I28
sg19
g5
sg20
g5
sg21
F0.0
sg22
g5
sg23
I955873
sg24
I0
sg25
I0
sg26
I462384
sg27
g5
sg28
I1848227
sg29
I493489
ssS'MCMAHON JEFFREY'
p47
(dp48
g3
I2355
sg4
g5
sg6
I3137357
sg8
I137108
sg9
F0.5416666666666666
sg10
I00
sg11
g5
sg12
S'jeffrey.mcmahon@enron.com'
p49
sg14
I694862
sg15
g5
sg16
I2228
sg17
g5
sg18
I48
sg19
I297353
sg20
g5
sg21
F0.024628450106157114
sg22
I2600000
sg23
I1662855
sg24
I58
sg25
I26
sg26
I558801
sg27
I370448
sg28
I4099771
sg29
I1104054
ssS'HAEDICKE MARK E'
p50
(dp51
g3
I4009
sg4
I2157527
sg6
I1785969
sg8
I76169
sg9
F0.03142709943328181
sg10
I00
sg11
I-934484
sg12
S'mark.haedicke@enron.com'
p52
sg14
I983346
sg15
I-329825
sg16
I1847
sg17
g5
sg18
I1941
sg19
I52382
sg20
g5
sg21
F0.04489897730107259
sg22
I1150000
sg23
I803094
sg24
I180
sg25
I61
sg26
I524169
sg27
I374125
sg28
I3859065
sg29
I608750
ssS'PIPER GREGORY F'
p53
(dp54
g3
I1238
sg4
I1130036
sg6
I1957671
sg8
I43057
sg9
F0.21621621621621623
sg10
I00
sg11
I-33333
sg12
S'greg.piper@enron.com'
p55
sg14
g5
sg15
I-409554
sg16
I742
sg17
g5
sg18
I222
sg19
I778
sg20
g5
sg21
F0.049273021001615507
sg22
I400000
sg23
I880290
sg24
I61
sg25
I48
sg26
I409554
sg27
I197091
sg28
I1737629
sg29
I880290
ssS'HUMPHREY GENE E'
p56
(dp57
g3
I128
sg4
I2964506
sg6
I4696260
sg8
I4994
sg9
F1.0
sg10
I00
sg11
g5
sg12
S'gene.humphrey@enron.com'
p58
sg14
g5
sg15
g5
sg16
I119
sg17
g5
sg18
I17
sg19
g5
sg20
g5
sg21
F0.078125
sg22
g5
sg23
I2282768
sg24
I10
sg25
I17
sg26
g5
sg27
I130724
sg28
I3100224
sg29
I2282768
ssS'NOLES JAMES L'
p59
(dp60
g3
g5
sg4
I774401
sg6
g7
sg8
g5
sg9
F0.0
sg10
I00
sg11
g5
sg12
g5
sg14
g5
sg15
I-94556
sg16
g5
sg17
g5
sg18
g5
sg19
g5
sg20
g5
sg21
F0.0
sg22
g5
sg23
I368705
sg24
g5
sg25
g5
sg26
I463261
sg27
g5
sg28
I774401
sg29
g5
ssS'BLACHMAN JEREMY M'
p61
(dp62
g3
I2475
sg4
g5
sg6
I1968213
sg8
I84208
sg9
F0.14285714285714285
sg10
I00
sg11
g5
sg12
S'jeremy.blachman@enron.com'
p63
sg14
I831809
sg15
g5
sg16
I2326
sg17
g5
sg18
I14
sg19
I272
sg20
g5
sg21
F0.010101010101010102
sg22
I850000
sg23
I954354
sg24
I25
sg25
I2
sg26
I189041
sg27
I248546
sg28
I2014835
sg29
I765313
ssS'SUNDE MARTIN'
p64
(dp65
g3
I2647
sg4
g5
sg6
g7
sg8
g5
sg9
F0.34210526315789475
sg10
I00
sg11
g5
sg12
S'marty.sunde@enron.com'
p66
sg14
I476451
sg15
g5
sg16
I2565
sg17
g5
sg18
I38
sg19
I111122
sg20
g5
sg21
F0.013978088401964487
sg22
I700000
sg23
I698920
sg24
I37
sg25
I13
sg26
I698920
sg27
I257486
sg28
I1545059
sg29
g5
ssS'GIBBS DANA R'
p67
(dp68
g3
I169
sg4
I504610
sg6
g7
sg8
g5
sg9
F0.0
sg10
I00
sg11
g5
sg12
S'dana.gibbs@enron.com'
p69
sg14
I461912
sg15
g5
sg16
I23
sg17
g5
sg18
I12
sg19
g5
sg20
g5
sg21
F0.0
sg22
g5
sg23
I2218275
sg24
I0
sg25
I0
sg26
g5
sg27
g5
sg28
I966522
sg29
I2218275
ssS'LOWRY CHARLES P'
p70
(dp71
g3
g5
sg4
g5
sg6
g7
sg8
g5
sg9
F0.0
sg10
I00
sg11
g5
sg12
g5
sg14
g5
sg15
I-153686
sg16
g5
sg17
g5
sg18
g5
sg19
g5
sg20
g5
sg21
F0.0
sg22
g5
sg23
I372205
sg24
g5
sg25
g5
sg26
I153686
sg27
g5
sg28
g5
sg29
I372205
ssS'COLWELL WESLEY'
p72
(dp73
g3
I1758
sg4
I27610
sg6
g7
sg8
I16514
sg9
F0.275
sg10
I01
sg11
I-144062
sg12
S'wes.colwell@enron.com'
p74
sg14
g5
sg15
g5
sg16
I1132
sg17
g5
sg18
I40
sg19
I101740
sg20
g5
sg21
F0.13651877133105803
sg22
I1200000
sg23
I698242
sg24
I240
sg25
I11
sg26
I698242
sg27
I288542
sg28
I1490344
sg29
g5
ssS'MULLER MARK S'
p75
(dp76
g3
I136
sg4
I842924
sg6
I2724822
sg8
g5
sg9
F0.0
sg10
I00
sg11
I-719000
sg12
S's..muller@enron.com'
p77
sg14
I1725545
sg15
g5
sg16
I114
sg17
g5
sg18
I16
sg19
I947
sg20
g5
sg21
F0.08823529411764706
sg22
I1100000
sg23
I1416848
sg24
I12
sg25
I0
sg26
I360528
sg27
I251654
sg28
I3202070
sg29
I1056320
ssS'JACKSON CHARLENE R'
p78
(dp79
g3
I258
sg4
g5
sg6
I1199356
sg8
I10181
sg9
F0.3392857142857143
sg10
I00
sg11
g5
sg12
S'charlene.jackson@enron.com'
p80
sg14
g5
sg15
g5
sg16
I117
sg17
g5
sg18
I56
sg19
I2435
sg20
g5
sg21
F0.09689922480620156
sg22
I250000
sg23
I725735
sg24
I25
sg25
I19
sg26
I540672
sg27
I288558
sg28
I551174
sg29
I185063
ssS'WESTFAHL RICHARD K'
p81
(dp82
g3
g5
sg4
g5
sg6
g7
sg8
I51870
sg9
F0.0
sg10
I00
sg11
I-10800
sg12
S'dick.westfahl@enron.com'
p83
sg14
I256191
sg15
g5
sg16
g5
sg17
g5
sg18
g5
sg19
I401130
sg20
g5
sg21
F0.0
sg22
g5
sg23
I384930
sg24
g5
sg25
g5
sg26
I384930
sg27
I63744
sg28
I762135
sg29
g5
ssS'WALTERS GARETH W'
p84
(dp85
g3
g5
sg4
I53625
sg6
g7
sg8
I33785
sg9
F0.0
sg10
I00
sg11
g5
sg12
g5
sg14
g5
sg15
g5
sg16
g5
sg17
g5
sg18
g5
sg19
g5
sg20
g5
sg21
F0.0
sg22
g5
sg23
I1030329
sg24
g5
sg25
g5
sg26
g5
sg27
g5
sg28
I87410
sg29
I1030329
ssS'WALLS JR ROBERT H'
p86
(dp87
g3
I671
sg4
g5
sg6
I10602632
sg8
I50936
sg9
F0.0
sg10
I00
sg11
g5
sg12
S'rob.walls@enron.com'
p88
sg14
I540751
sg15
g5
sg16
I215
sg17
g5
sg18
I146
sg19
I2
sg20
g5
sg21
F0.02533532041728763
sg22
I850000
sg23
I5898997
sg24
I17
sg25
I0
sg26
I1552453
sg27
I357091
sg28
I1798780
sg29
I4346544
ssS'KITCHEN LOUISE'
p89
(dp90
g3
I8305
sg4
g5
sg6
I899627
sg8
I5774
sg9
F0.11226851851851852
sg10
I00
sg11
g5
sg12
S'louise.kitchen@enron.com'
p91
sg14
g5
sg15
g5
sg16
I3669
sg17
g5
sg18
I1728
sg19
I93925
sg20
g5
sg21
F0.030222757375075255
sg22
I3100000
sg23
I547143
sg24
I251
sg25
I194
sg26
I466101
sg27
I271442
sg28
I3471141
sg29
I81042
ssS'CHAN RONNIE'
p92
(dp93
g3
g5
sg4
g5
sg6
g7
sg8
g5
sg9
F0.0
sg10
I00
sg11
I-98784
sg12
g5
sg14
g5
sg15
I-32460
sg16
g5
sg17
g5
sg18
g5
sg19
g5
sg20
I98784
sg21
F0.0
sg22
g5
sg23
g5
sg24
g5
sg25
g5
sg26
I32460
sg27
g5
sg28
g5
sg29
g5
ssS'BELFER ROBERT'
p94
(dp95
g3
g5
sg4
I-102500
sg6
g7
sg8
g5
sg9
F0.0
sg10
I00
sg11
g5
sg12
g5
sg14
g5
sg15
I44093
sg16
g5
sg17
g5
sg18
g5
sg19
g5
sg20
I3285
sg21
F0.0
sg22
g5
sg23
I-44093
sg24
g5
sg25
g5
sg26
g5
sg27
g5
sg28
I102500
sg29
I3285
ssS'SHANKMAN JEFFREY A'
p96
(dp97
g3
I3221
sg4
g5
sg6
I3818043
sg8
I178979
sg9
F0.030958597538232
sg10
I00
sg11
g5
sg12
S'jeffrey.shankman@enron.com'
p98
sg14
I554422
sg15
g5
sg16
I1730
sg17
g5
sg18
I2681
sg19
I1191
sg20
g5
sg21
F0.029183483390251473
sg22
I2000000
sg23
I2072035
sg24
I94
sg25
I83
sg26
I630137
sg27
I304110
sg28
I3038702
sg29
I1441898
ssS'WODRASKA JOHN'
p99
(dp100
g3
g5
sg4
g5
sg6
g7
sg8
g5
sg9
F0.0
sg10
I00
sg11
g5
sg12
S'john.wodraska@enron.com'
p101
sg14
g5
sg15
g5
sg16
g5
sg17
g5
sg18
g5
sg19
I189583
sg20
g5
sg21
F0.0
sg22
g5
sg23
g5
sg24
g5
sg25
g5
sg26
g5
sg27
g5
sg28
I189583
sg29
g5
ssS'BERGSIEKER RICHARD P'
p102
(dp103
g3
I383
sg4
g5
sg6
g7
sg8
I59175
sg9
F0.0
sg10
I00
sg11
I-485813
sg12
S'rick.bergsieker@enron.com'
p104
sg14
I180250
sg15
g5
sg16
I233
sg17
g5
sg18
I59
sg19
I427316
sg20
g5
sg21
F0.010443864229765013
sg22
I250000
sg23
I659249
sg24
I4
sg25
I0
sg26
I659249
sg27
I187922
sg28
I618850
sg29
g5
ssS'URQUHART JOHN A'
p105
(dp106
g3
g5
sg4
g5
sg6
g7
sg8
I228656
sg9
F0.0
sg10
I00
sg11
I-36666
sg12
g5
sg14
g5
sg15
g5
sg16
g5
sg17
g5
sg18
g5
sg19
g5
sg20
I36666
sg21
F0.0
sg22
g5
sg23
g5
sg24
g5
sg25
g5
sg26
g5
sg27
g5
sg28
I228656
sg29
g5
ssS'BIBI PHILIPPE A'
p107
(dp108
g3
I1607
sg4
g5
sg6
I3523175
sg8
I38559
sg9
F0.2
sg10
I00
sg11
g5
sg12
S'philippe.bibi@enron.com'
p109
sg14
I369721
sg15
g5
sg16
I1336
sg17
g5
sg18
I40
sg19
I425688
sg20
g5
sg21
F0.01431238332296204
sg22
I1000000
sg23
I1843816
sg24
I23
sg25
I8
sg26
I378082
sg27
I213625
sg28
I2047593
sg29
I1465734
ssS'RIEKER PAULA H'
p110
(dp111
g3
I1328
sg4
I214678
sg6
I3803326
sg8
I33271
sg9
F0.5853658536585366
sg10
I01
sg11
I-100000
sg12
S'paula.rieker@enron.com'
p112
sg14
g5
sg15
g5
sg16
I1258
sg17
g5
sg18
I82
sg19
I1950
sg20
g5
sg21
F0.02635542168674699
sg22
I700000
sg23
I1918887
sg24
I35
sg25
I48
sg26
I283649
sg27
I249201
sg28
I1099100
sg29
I1635238
ssS'WHALEY DAVID A'
p113
(dp114
g3
g5
sg4
g5
sg6
g7
sg8
g5
sg9
F0.0
sg10
I00
sg11
g5
sg12
g5
sg14
g5
sg15
g5
sg16
g5
sg17
g5
sg18
g5
sg19
g5
sg20
g5
sg21
F0.0
sg22
g5
sg23
I98718
sg24
g5
sg25
g5
sg26
g5
sg27
g5
sg28
g5
sg29
I98718
ssS'BECK SALLY W'
p115
(dp116
g3
I7315
sg4
g5
sg6
g7
sg8
I37172
sg9
F0.08887865530739121
sg10
I00
sg11
g5
sg12
S'sally.beck@enron.com'
p117
sg14
g5
sg15
g5
sg16
I2639
sg17
g5
sg18
I4343
sg19
I566
sg20
g5
sg21
F0.01968557758031442
sg22
I700000
sg23
I126027
sg24
I144
sg25
I386
sg26
I126027
sg27
I231330
sg28
I969068
sg29
g5
ssS'HAUG DAVID L'
p118
(dp119
g3
I573
sg4
g5
sg6
g7
sg8
I475
sg9
F0.3684210526315789
sg10
I00
sg11
g5
sg12
S'david.haug@enron.com'
p120
sg14
g5
sg15
g5
sg16
I471
sg17
g5
sg18
I19
sg19
g5
sg20
g5
sg21
F0.006980802792321117
sg22
g5
sg23
I2217299
sg24
I4
sg25
I7
sg26
I2217299
sg27
g5
sg28
I475
sg29
g5
ssS'ECHOLS JOHN B'
p121
(dp122
g3
g5
sg4
g5
sg6
I1792624
sg8
I21530
sg9
F0.0
sg10
I00
sg11
g5
sg12
S'john.echols@enron.com'
p123
sg14
I2234774
sg15
g5
sg16
g5
sg17
g5
sg18
g5
sg19
I53775
sg20
g5
sg21
F0.0
sg22
I200000
sg23
I1008941
sg24
g5
sg25
g5
sg26
I407503
sg27
I182245
sg28
I2692324
sg29
I601438
ssS'MENDELSOHN JOHN'
p124
(dp125
g3
g5
sg4
g5
sg6
g7
sg8
I148
sg9
F0.0
sg10
I00
sg11
I-103750
sg12
g5
sg14
g5
sg15
g5
sg16
g5
sg17
g5
sg18
g5
sg19
g5
sg20
I103750
sg21
F0.0
sg22
g5
sg23
g5
sg24
g5
sg25
g5
sg26
g5
sg27
g5
sg28
I148
sg29
g5
ssS'HICKERSON GARY J'
p126
(dp127
g3
I1320
sg4
g5
sg6
g7
sg8
I98849
sg9
F0.037037037037037035
sg10
I00
sg11
g5
sg12
S'gary.hickerson@enron.com'
p128
sg14
I69223
sg15
g5
sg16
I900
sg17
g5
sg18
I27
sg19
I1936
sg20
g5
sg21
F0.030303030303030304
sg22
I1700000
sg23
I441096
sg24
I40
sg25
I1
sg26
I441096
sg27
I211788
sg28
I2081796
sg29
g5
ssS'CLINE KENNETH W'
p129
(dp130
g3
g5
sg4
g5
sg6
g7
sg8
g5
sg9
F0.0
sg10
I00
sg11
g5
sg12
g5
sg14
g5
sg15
I-472568
sg16
g5
sg17
g5
sg18
g5
sg19
g5
sg20
g5
sg21
F0.0
sg22
g5
sg23
I189518
sg24
g5
sg25
g5
sg26
I662086
sg27
g5
sg28
g5
sg29
g5
ssS'LEWIS RICHARD'
p131
(dp132
g3
I952
sg4
g5
sg6
g7
sg8
g5
sg9
F0.0
sg10
I00
sg11
g5
sg12
S'richard.lewis@enron.com'
p133
sg14
g5
sg15
g5
sg16
I739
sg17
g5
sg18
I26
sg19
g5
sg20
g5
sg21
F0.01050420168067227
sg22
g5
sg23
I850477
sg24
I10
sg25
I0
sg26
g5
sg27
g5
sg28
g5
sg29
I850477
ssS'HAYES ROBERT E'
p134
(dp135
g3
I504
sg4
I7961
sg6
g7
sg8
g5
sg9
F0.0
sg10
I00
sg11
g5
sg12
S'robert.hayes@enron.com'
p136
sg14
g5
sg15
g5
sg16
I50
sg17
g5
sg18
I12
sg19
g5
sg20
g5
sg21
F0.031746031746031744
sg22
g5
sg23
I151418
sg24
I16
sg25
I0
sg26
I151418
sg27
g5
sg28
I7961
sg29
g5
ssS'KOPPER MICHAEL J'
p137
(dp138
g3
g5
sg4
g5
sg6
g7
sg8
I118134
sg9
F0.0
sg10
I01
sg11
g5
sg12
S'michael.kopper@enron.com'
p139
sg14
I602671
sg15
g5
sg16
g5
sg17
g5
sg18
g5
sg19
I907502
sg20
g5
sg21
F0.0
sg22
I800000
sg23
I985032
sg24
g5
sg25
g5
sg26
I985032
sg27
I224305
sg28
I2652612
sg29
g5
ssS'LEFF DANIEL P'
p140
(dp141
g3
I2822
sg4
g5
sg6
g7
sg8
g5
sg9
F0.2222222222222222
sg10
I00
sg11
g5
sg12
S'dan.leff@enron.com'
p142
sg14
I1387399
sg15
g5
sg16
I2672
sg17
g5
sg18
I63
sg19
I3083
sg20
g5
sg21
F0.02374202693125443
sg22
I1000000
sg23
I360528
sg24
I67
sg25
I14
sg26
I360528
sg27
I273746
sg28
I2664228
sg29
g5
ssS'LAVORATO JOHN J'
p143
(dp144
g3
I7259
sg4
g5
sg6
I9665427
sg8
I49537
sg9
F0.15899419729206962
sg10
I00
sg11
g5
sg12
S'john.lavorato@enron.com'
p145
sg14
I2035380
sg15
g5
sg16
I3962
sg17
g5
sg18
I2585
sg19
I1552
sg20
g5
sg21
F0.07273729163796666
sg22
I8000000
sg23
I5167144
sg24
I528
sg25
I411
sg26
I1008149
sg27
I339288
sg28
I10425757
sg29
I4158995
ssS'BERBERIAN DAVID'
p146
(dp147
g3
g5
sg4
g5
sg6
I4334594
sg8
I11892
sg9
F0.0
sg10
I00
sg11
g5
sg12
S'david.berberian@enron.com'
p148
sg14
g5
sg15
g5
sg16
g5
sg17
g5
sg18
g5
sg19
g5
sg20
g5
sg21
F0.0
sg22
g5
sg23
I2493616
sg24
g5
sg25
g5
sg26
I869220
sg27
I216582
sg28
I228474
sg29
I1624396
ssS'DETMERING TIMOTHY J'
p149
(dp150
g3
g5
sg4
I875307
sg6
I4266230
sg8
I52255
sg9
F0.0
sg10
I00
sg11
I-775241
sg12
S'timothy.detmering@enron.com'
p151
sg14
I415657
sg15
I-315068
sg16
g5
sg17
g5
sg18
g5
sg19
I1105
sg20
g5
sg21
F0.0
sg22
I425000
sg23
I2027865
sg24
g5
sg25
g5
sg26
I315068
sg27
I210500
sg28
I1204583
sg29
I2027865
ssS'WAKEHAM JOHN'
p152
(dp153
g3
g5
sg4
g5
sg6
g7
sg8
I103773
sg9
F0.0
sg10
I00
sg11
g5
sg12
g5
sg14
g5
sg15
g5
sg16
g5
sg17
g5
sg18
g5
sg19
g5
sg20
I109298
sg21
F0.0
sg22
g5
sg23
g5
sg24
g5
sg25
g5
sg26
g5
sg27
g5
sg28
I213071
sg29
g5
ssS'POWERS WILLIAM'
p154
(dp155
g3
I653
sg4
g5
sg6
g7
sg8
g5
sg9
F0.0
sg10
I00
sg11
I-17500
sg12
S'ken.powers@enron.com'
p156
sg14
g5
sg15
g5
sg16
I12
sg17
g5
sg18
I26
sg19
g5
sg20
I17500
sg21
F0.0
sg22
g5
sg23
g5
sg24
I0
sg25
I0
sg26
g5
sg27
g5
sg28
g5
sg29
g5
ssS'GOLD JOSEPH'
p157
(dp158
g3
g5
sg4
g5
sg6
I1587006
sg8
g5
sg9
F0.0
sg10
I00
sg11
g5
sg12
S'joe.gold@enron.com'
p159
sg14
I304805
sg15
g5
sg16
g5
sg17
g5
sg18
g5
sg19
I819288
sg20
g5
sg21
F0.0
sg22
I750000
sg23
I877611
sg24
g5
sg25
g5
sg26
I441096
sg27
I272880
sg28
I2146973
sg29
I436515
ssS'BANNANTINE JAMES M'
p160
(dp161
g3
I566
sg4
g5
sg6
I9290121
sg8
I56301
sg9
F0.0
sg10
I00
sg11
I-5104
sg12
S'james.bannantine@enron.com'
p162
sg14
g5
sg15
I-560222
sg16
I465
sg17
g5
sg18
I29
sg19
I864523
sg20
g5
sg21
F0.06890459363957598
sg22
g5
sg23
I5243487
sg24
I39
sg25
I0
sg26
I1757552
sg27
I477
sg28
I916197
sg29
I4046157
ssS'DUNCAN JOHN H'
p163
(dp164
g3
g5
sg4
g5
sg6
g7
sg8
g5
sg9
F0.0
sg10
I00
sg11
I-25000
sg12
g5
sg14
g5
sg15
g5
sg16
g5
sg17
g5
sg18
g5
sg19
g5
sg20
I102492
sg21
F0.0
sg22
g5
sg23
I371750
sg24
g5
sg25
g5
sg26
g5
sg27
g5
sg28
I77492
sg29
I371750
ssS'SHAPIRO RICHARD S'
p165
(dp166
g3
I15149
sg4
g5
sg6
I1863914
sg8
I137767
sg9
F0.053497942386831275
sg10
I00
sg11
g5
sg12
S'richard.shapiro@enron.com'
p167
sg14
g5
sg15
g5
sg16
I4527
sg17
g5
sg18
I1215
sg19
I705
sg20
g5
sg21
F0.0048848108786058485
sg22
I650000
sg23
I987001
sg24
I74
sg25
I65
sg26
I379164
sg27
I269076
sg28
I1057548
sg29
I607837
ssS'SHERRIFF JOHN R'
p168
(dp169
g3
I3187
sg4
g5
sg6
I5393320
sg8
g5
sg9
F0.25
sg10
I00
sg11
g5
sg12
S'john.sherriff@enron.com'
p170
sg14
I554422
sg15
g5
sg16
I2103
sg17
g5
sg18
I92
sg19
I1852186
sg20
g5
sg21
F0.008785691873235017
sg22
I1500000
sg23
I3128982
sg24
I28
sg25
I23
sg26
I1293424
sg27
I428780
sg28
I4335388
sg29
I1835558
ssS'SHELBY REX'
p171
(dp172
g3
I225
sg4
g5
sg6
I4329856
sg8
I22884
sg9
F0.358974358974359
sg10
I01
sg11
I-4167
sg12
S'rex.shelby@enron.com'
p173
sg14
g5
sg15
g5
sg16
I91
sg17
g5
sg18
I39
sg19
I1573324
sg20
g5
sg21
F0.057777777777777775
sg22
I200000
sg23
I2493616
sg24
I13
sg25
I14
sg26
I869220
sg27
I211844
sg28
I2003885
sg29
I1624396
ssS'LEMAISTRE CHARLES'
p174
(dp175
g3
g5
sg4
g5
sg6
g7
sg8
g5
sg9
F0.0
sg10
I00
sg11
I-25000
sg12
g5
sg14
g5
sg15
g5
sg16
g5
sg17
g5
sg18
g5
sg19
g5
sg20
I112492
sg21
F0.0
sg22
g5
sg23
I412878
sg24
g5
sg25
g5
sg26
g5
sg27
g5
sg28
I87492
sg29
I412878
ssS'DEFFNER JOSEPH M'
p176
(dp177
g3
I714
sg4
g5
sg6
I382710
sg8
I41626
sg9
F0.05405405405405406
sg10
I00
sg11
g5
sg12
S'joseph.deffner@enron.com'
p178
sg14
I335349
sg15
g5
sg16
I552
sg17
g5
sg18
I74
sg19
I25553
sg20
g5
sg21
F0.16106442577030813
sg22
I600000
sg23
I159211
sg24
I115
sg25
I4
sg26
I141833
sg27
I206121
sg28
I1208649
sg29
I17378
ssS'KISHKILL JOSEPH G'
p179
(dp180
g3
g5
sg4
g5
sg6
g7
sg8
I116335
sg9
F0.0
sg10
I00
sg11
I-51042
sg12
S'joe.kishkill@enron.com'
p181
sg14
g5
sg15
g5
sg16
g5
sg17
g5
sg18
g5
sg19
I465357
sg20
g5
sg21
F0.0
sg22
g5
sg23
I1034346
sg24
g5
sg25
g5
sg26
I1034346
sg27
I174246
sg28
I704896
sg29
g5
ssS'WHALLEY LAWRENCE G'
p182
(dp183
g3
I6019
sg4
g5
sg6
I9872461
sg8
I57838
sg9
F0.04316546762589928
sg10
I00
sg11
g5
sg12
S'greg.whalley@enron.com'
p184
sg14
I808346
sg15
g5
sg16
I3920
sg17
g5
sg18
I556
sg19
I301026
sg20
g5
sg21
F0.03090214321315833
sg22
I3000000
sg23
I6079137
sg24
I186
sg25
I24
sg26
I2796177
sg27
I510364
sg28
I4677574
sg29
I3282960
ssS'PIRO JIM'
p185
(dp186
g3
I58
sg4
g5
sg6
g7
sg8
g5
sg9
F0.0625
sg10
I00
sg11
g5
sg12
S'jim.piro@enron.com'
p187
sg14
g5
sg15
g5
sg16
I3
sg17
g5
sg18
I16
sg19
g5
sg20
g5
sg21
F0.0
sg22
g5
sg23
I47304
sg24
I0
sg25
I1
sg26
I47304
sg27
g5
sg28
g5
sg29
g5
ssS'MCCONNELL MICHAEL S'
p188
(dp189
g3
I3329
sg4
g5
sg6
I5089327
sg8
I81364
sg9
F0.07075127644055434
sg10
I00
sg11
g5
sg12
S'mike.mcconnell@enron.com'
p190
sg14
I554422
sg15
g5
sg16
I2189
sg17
g5
sg18
I2742
sg19
I540
sg20
g5
sg21
F0.02763592670471613
sg22
I1100000
sg23
I3101279
sg24
I92
sg25
I194
sg26
I1478269
sg27
I365038
sg28
I2101364
sg29
I1623010
ssS'DELAINEY DAVID W'
p191
(dp192
g3
I3093
sg4
g5
sg6
I6270537
sg8
I86174
sg9
F0.198435972629521
sg10
I01
sg11
g5
sg12
S'david.delainey@enron.com'
p193
sg14
I1294981
sg15
g5
sg16
I2097
sg17
g5
sg18
I3069
sg19
I1661
sg20
g5
sg21
F0.02133850630455868
sg22
I3000000
sg23
I3614261
sg24
I66
sg25
I609
sg26
I1323148
sg27
I365163
sg28
I4747979
sg29
I2291113
ssS'SULLIVAN-SHAKLOVITZ COLLEEN'
p194
(dp195
g3
g5
sg4
I181993
sg6
I2887529
sg8
g5
sg9
F0.0
sg10
I00
sg11
g5
sg12
g5
sg14
I554422
sg15
g5
sg16
g5
sg17
g5
sg18
g5
sg19
I162
sg20
g5
sg21
F0.0
sg22
I100000
sg23
I1362375
sg24
g5
sg25
g5
sg26
g5
sg27
I162779
sg28
I999356
sg29
I1362375
ssS'WROBEL BRUCE'
p196
(dp197
g3
g5
sg4
g5
sg6
g7
sg8
g5
sg9
F0.0
sg10
I00
sg11
g5
sg12
g5
sg14
g5
sg15
g5
sg16
g5
sg17
g5
sg18
g5
sg19
g5
sg20
g5
sg21
F0.0
sg22
g5
sg23
I139130
sg24
g5
sg25
g5
sg26
g5
sg27
g5
sg28
g5
sg29
I139130
ssS'LINDHOLM TOD A'
p198
(dp199
g3
g5
sg4
I204075
sg6
I5850026
sg8
I57727
sg9
F0.0
sg10
I00
sg11
g5
sg12
S'tod.lindholm@enron.com'
p200
sg14
I175000
sg15
g5
sg16
g5
sg17
g5
sg18
g5
sg19
I2630
sg20
g5
sg21
F0.0
sg22
I200000
sg23
I3064208
sg24
g5
sg25
g5
sg26
I514847
sg27
I236457
sg28
I875889
sg29
I2549361
ssS'MEYER JEROME J'
p201
(dp202
g3
g5
sg4
g5
sg6
g7
sg8
I2151
sg9
F0.0
sg10
I00
sg11
I-38346
sg12
g5
sg14
g5
sg15
g5
sg16
g5
sg17
g5
sg18
g5
sg19
g5
sg20
I38346
sg21
F0.0
sg22
g5
sg23
g5
sg24
g5
sg25
g5
sg26
g5
sg27
g5
sg28
I2151
sg29
g5
ssS'LAY KENNETH L'
p203
(dp204
g3
I4273
sg4
I202911
sg6
I84530783
sg8
I99832
sg9
F0.4444444444444444
sg10
I01
sg11
I-300000
sg12
S'kenneth.lay@enron.com'
p205
sg14
I3600000
sg15
g5
sg16
I2411
sg17
I81525000
sg18
I36
sg19
I10359729
sg20
g5
sg21
F0.028785396676807865
sg22
I7000000
sg23
I49110078
sg24
I123
sg25
I16
sg26
I14761694
sg27
I1072321
sg28
I103559793
sg29
I34348384
ssS'BUTTS ROBERT H'
p206
(dp207
g3
g5
sg4
g5
sg6
g7
sg8
I9410
sg9
F0.0
sg10
I00
sg11
I-75000
sg12
S'bob.butts@enron.com'
p208
sg14
I175000
sg15
g5
sg16
g5
sg17
g5
sg18
g5
sg19
I150656
sg20
g5
sg21
F0.0
sg22
I750000
sg23
I417619
sg24
g5
sg25
g5
sg26
I417619
sg27
I261516
sg28
I1271582
sg29
g5
ssS'OLSON CINDY K'
p209
(dp210
g3
I1184
sg4
I77716
sg6
I4572875
sg8
I63791
sg9
F0.28846153846153844
sg10
I00
sg11
g5
sg12
S'cindy.olson@enron.com'
p211
sg14
I100000
sg15
g5
sg16
I856
sg17
g5
sg18
I52
sg19
I972
sg20
g5
sg21
F0.016891891891891893
sg22
I750000
sg23
I2606763
sg24
I20
sg25
I15
sg26
I969729
sg27
I329078
sg28
I1321557
sg29
I1637034
ssS'MCDONALD REBECCA'
p212
(dp213
g3
I894
sg4
g5
sg6
g7
sg8
g5
sg9
F0.07692307692307693
sg10
I00
sg11
g5
sg12
S'rebecca.mcdonald@enron.com'
p214
sg14
g5
sg15
g5
sg16
I720
sg17
g5
sg18
I13
sg19
g5
sg20
g5
sg21
F0.06040268456375839
sg22
g5
sg23
I1691366
sg24
I54
sg25
I1
sg26
I934065
sg27
g5
sg28
g5
sg29
I757301
ssS'CUMBERLAND MICHAEL S'
p215
(dp216
g3
g5
sg4
g5
sg6
g7
sg8
I22344
sg9
F0.0
sg10
I00
sg11
g5
sg12
g5
sg14
I275000
sg15
g5
sg16
g5
sg17
g5
sg18
g5
sg19
I713
sg20
g5
sg21
F0.0
sg22
I325000
sg23
I207940
sg24
g5
sg25
g5
sg26
I207940
sg27
I184899
sg28
I807956
sg29
g5
ssS'GAHN ROBERT S'
p217
(dp218
g3
g5
sg4
I73122
sg6
I593852
sg8
I50080
sg9
F0.0
sg10
I00
sg11
I-1042
sg12
g5
sg14
g5
sg15
g5
sg16
g5
sg17
g5
sg18
g5
sg19
I76547
sg20
g5
sg21
F0.0
sg22
I509870
sg23
I318607
sg24
g5
sg25
g5
sg26
I235370
sg27
I192008
sg28
I900585
sg29
I83237
ssS'BADUM JAMES P'
p219
(dp220
g3
g5
sg4
I178980
sg6
g7
sg8
I3486
sg9
F0.0
sg10
I00
sg11
g5
sg12
g5
sg14
g5
sg15
g5
sg16
g5
sg17
g5
sg18
g5
sg19
g5
sg20
g5
sg21
F0.0
sg22
g5
sg23
I257817
sg24
g5
sg25
g5
sg26
g5
sg27
g5
sg28
I182466
sg29
I257817
ssS'HERMANN ROBERT J'
p221
(dp222
g3
g5
sg4
g5
sg6
I1118295
sg8
I48357
sg9
F0.0
sg10
I00
sg11
I-280000
sg12
S'robert.hermann@enron.com'
p223
sg14
I150000
sg15
g5
sg16
g5
sg17
g5
sg18
g5
sg19
I416441
sg20
g5
sg21
F0.0
sg22
I700000
sg23
I668132
sg24
g5
sg25
g5
sg26
I480632
sg27
I262663
sg28
I1297461
sg29
I187500
ssS'FALLON JAMES B'
p224
(dp225
g3
I1755
sg4
g5
sg6
I3577244
sg8
I95924
sg9
F0.49333333333333335
sg10
I00
sg11
g5
sg12
S'jim.fallon@enron.com'
p226
sg14
I374347
sg15
g5
sg16
I1604
sg17
g5
sg18
I75
sg19
I401481
sg20
g5
sg21
F0.023931623931623933
sg22
I2500000
sg23
I2332399
sg24
I42
sg25
I37
sg26
I1392142
sg27
I304588
sg28
I3676340
sg29
I940257
ssS'GATHMANN WILLIAM D'
p227
(dp228
g3
g5
sg4
g5
sg6
g7
sg8
g5
sg9
F0.0
sg10
I00
sg11
g5
sg12
g5
sg14
g5
sg15
I-72419
sg16
g5
sg17
g5
sg18
g5
sg19
g5
sg20
g5
sg21
F0.0
sg22
g5
sg23
I1945360
sg24
g5
sg25
g5
sg26
I264013
sg27
g5
sg28
g5
sg29
I1753766
ssS'HORTON STANLEY C'
p229
(dp230
g3
I2350
sg4
I3131860
sg6
g7
sg8
g5
sg9
F0.013979496738117428
sg10
I00
sg11
g5
sg12
S'stanley.horton@enron.com'
p231
sg14
g5
sg15
g5
sg16
I1074
sg17
g5
sg18
I1073
sg19
g5
sg20
g5
sg21
F0.01872340425531915
sg22
g5
sg23
I7256648
sg24
I44
sg25
I15
sg26
I2046079
sg27
g5
sg28
I3131860
sg29
I5210569
ssS'BOWEN JR RAYMOND M'
p232
(dp233
g3
I1858
sg4
g5
sg6
g7
sg8
I65907
sg9
F0.5555555555555556
sg10
I01
sg11
I-833
sg12
S'raymond.bowen@enron.com'
p234
sg14
I974293
sg15
g5
sg16
I1593
sg17
g5
sg18
I27
sg19
I1621
sg20
g5
sg21
F0.07534983853606028
sg22
I1350000
sg23
I252055
sg24
I140
sg25
I15
sg26
I252055
sg27
I278601
sg28
I2669589
sg29
g5
ssS'GILLIS JOHN'
p235
(dp236
g3
g5
sg4
g5
sg6
g7
sg8
g5
sg9
F0.0
sg10
I00
sg11
g5
sg12
g5
sg14
g5
sg15
g5
sg16
g5
sg17
g5
sg18
g5
sg19
g5
sg20
g5
sg21
F0.0
sg22
g5
sg23
I85641
sg24
g5
sg25
g5
sg26
I75838
sg27
g5
sg28
g5
sg29
I9803
ssS'FITZGERALD JAY L'
p237
(dp238
g3
I936
sg4
g5
sg6
I2484854
sg8
I23870
sg9
F0.5
sg10
I00
sg11
g5
sg12
S'jay.fitzgerald@enron.com'
p239
sg14
I556416
sg15
g5
sg16
I723
sg17
g5
sg18
I16
sg19
I285414
sg20
g5
sg21
F0.0010683760683760685
sg22
I350000
sg23
I1621236
sg24
I1
sg25
I8
sg26
I956775
sg27
I199157
sg28
I1414857
sg29
I664461
ssS'MORAN MICHAEL P'
p240
(dp241
g3
I672
sg4
g5
sg6
g7
sg8
g5
sg9
F0.0
sg10
I00
sg11
g5
sg12
S'michael.moran@enron.com'
p242
sg14
g5
sg15
g5
sg16
I127
sg17
g5
sg18
I19
sg19
g5
sg20
g5
sg21
F0.0
sg22
g5
sg23
I221141
sg24
I0
sg25
I0
sg26
I161602
sg27
g5
sg28
g5
sg29
I59539
ssS'REDMOND BRIAN L'
p243
(dp244
g3
I1671
sg4
g5
sg6
I15496203
sg8
I14689
sg9
F0.22171945701357465
sg10
I00
sg11
g5
sg12
S'brian.redmond@enron.com'
p245
sg14
g5
sg15
g5
sg16
I1063
sg17
g5
sg18
I221
sg19
g5
sg20
g5
sg21
F0.12208258527827648
sg22
g5
sg23
I7890324
sg24
I204
sg25
I49
sg26
I381285
sg27
I96840
sg28
I111529
sg29
I7509039
ssS'BAZELIDES PHILIP J'
p246
(dp247
g3
g5
sg4
I684694
sg6
I3280100
sg8
g5
sg9
F0.0
sg10
I00
sg11
g5
sg12
g5
sg14
I93750
sg15
g5
sg16
g5
sg17
g5
sg18
g5
sg19
I874
sg20
g5
sg21
F0.0
sg22
g5
sg23
I1599641
sg24
g5
sg25
g5
sg26
g5
sg27
I80818
sg28
I860136
sg29
I1599641
ssS'BELDEN TIMOTHY N'
p248
(dp249
g3
I7991
sg4
I2144013
sg6
I2277840
sg8
I17355
sg9
F0.2231404958677686
sg10
I01
sg11
I-2334434
sg12
S'tim.belden@enron.com'
p250
sg14
g5
sg15
g5
sg16
I5521
sg17
g5
sg18
I484
sg19
I210698
sg20
g5
sg21
F0.028532098610937303
sg22
I5249999
sg23
I1110705
sg24
I228
sg25
I108
sg26
I157569
sg27
I213999
sg28
I5501630
sg29
I953136
ssS'DIMICHELE RICHARD G'
p251
(dp252
g3
g5
sg4
g5
sg6
I16772325
sg8
I35812
sg9
F0.0
sg10
I00
sg11
g5
sg12
S'richard.dimichele@enron.com'
p253
sg14
I694862
sg15
g5
sg16
g5
sg17
g5
sg18
g5
sg19
I374689
sg20
g5
sg21
F0.0
sg22
I1000000
sg23
I8317782
sg24
g5
sg25
g5
sg26
I126027
sg27
I262788
sg28
I2368151
sg29
I8191755
ssS'DURAN WILLIAM D'
p254
(dp255
g3
I904
sg4
g5
sg6
I3303471
sg8
I25785
sg9
F0.25
sg10
I00
sg11
g5
sg12
S'w.duran@enron.com'
p256
sg14
I1105218
sg15
g5
sg16
I599
sg17
g5
sg18
I12
sg19
I1568
sg20
g5
sg21
F0.1172566371681416
sg22
I750000
sg23
I1640910
sg24
I106
sg25
I3
sg26
I189041
sg27
I210692
sg28
I2093263
sg29
I1451869
ssS'THORN TERENCE H'
p257
(dp258
g3
I266
sg4
I16586
sg6
I9492365
sg8
I46145
sg9
F0.0
sg10
I00
sg11
g5
sg12
S'terence.thorn@enron.com'
p259
sg14
I200000
sg15
g5
sg16
I73
sg17
g5
sg18
I41
sg19
I426629
sg20
g5
sg21
F0.0
sg22
g5
sg23
I4817796
sg24
I0
sg25
I0
sg26
I365320
sg27
I222093
sg28
I911453
sg29
I4452476
ssS'FASTOW ANDREW S'
p260
(dp261
g3
g5
sg4
g5
sg6
g7
sg8
I55921
sg9
F0.0
sg10
I01
sg11
I-1386055
sg12
S'andrew.fastow@enron.com'
p262
sg14
I1736055
sg15
g5
sg16
g5
sg17
g5
sg18
g5
sg19
I277464
sg20
g5
sg21
F0.0
sg22
I1300000
sg23
I1794412
sg24
g5
sg25
g5
sg26
I1794412
sg27
I440698
sg28
I2424083
sg29
g5
ssS'FOY JOE'
p263
(dp264
g3
I57
sg4
I181755
sg6
g7
sg8
g5
sg9
F0.0
sg10
I00
sg11
g5
sg12
S'tracy.foy@enron.com'
p265
sg14
g5
sg15
g5
sg16
I2
sg17
g5
sg18
I13
sg19
g5
sg20
g5
sg21
F0.0
sg22
g5
sg23
I343434
sg24
I0
sg25
I0
sg26
g5
sg27
g5
sg28
I181755
sg29
I343434
ssS'CALGER CHRISTOPHER F'
p266
(dp267
g3
I2598
sg4
g5
sg6
g7
sg8
I35818
sg9
F0.1736111111111111
sg10
I01
sg11
I-262500
sg12
S'christopher.calger@enron.com'
p268
sg14
I375304
sg15
g5
sg16
I2188
sg17
g5
sg18
I144
sg19
I486
sg20
g5
sg21
F0.07659738260200154
sg22
I1250000
sg23
I126027
sg24
I199
sg25
I25
sg26
I126027
sg27
I240189
sg28
I1639297
sg29
g5
ssS'RICE KENNETH D'
p269
(dp270
g3
I905
sg4
g5
sg6
I42757350
sg8
I46950
sg9
F0.2222222222222222
sg10
I01
sg11
I-3504386
sg12
S'ken.rice@enron.com'
p271
sg14
I1617011
sg15
g5
sg16
I864
sg17
g5
sg18
I18
sg19
I174839
sg20
g5
sg21
F0.04640883977900553
sg22
I1750000
sg23
I22542539
sg24
I42
sg25
I4
sg26
I2748364
sg27
I420636
sg28
I505050
sg29
I19794175
ssS'KAMINSKI WINCENTY J'
p272
(dp273
g3
I4607
sg4
g5
sg6
I2101148
sg8
I83585
sg9
F0.011901447661469933
sg10
I00
sg11
g5
sg12
S'vince.kaminski@enron.com'
p274
sg14
I323466
sg15
g5
sg16
I583
sg17
g5
sg18
I14368
sg19
I4669
sg20
g5
sg21
F0.008899500759713479
sg22
I400000
sg23
I976037
sg24
I41
sg25
I171
sg26
I126027
sg27
I275101
sg28
I1086821
sg29
I850010
ssS'COX DAVID'
p275
(dp276
g3
I102
sg4
g5
sg6
I927472
sg8
I27861
sg9
F0.12121212121212122
sg10
I00
sg11
I-41250
sg12
S'chip.cox@enron.com'
p277
sg14
g5
sg15
g5
sg16
I71
sg17
g5
sg18
I33
sg19
I494
sg20
g5
sg21
F0.0
sg22
I800000
sg23
I495633
sg24
I0
sg25
I4
sg26
I378082
sg27
I314288
sg28
I1101393
sg29
I117551
ssS'OVERDYKE JR JERE C'
p278
(dp279
g3
g5
sg4
g5
sg6
I12669113
sg8
I18834
sg9
F0.0
sg10
I00
sg11
g5
sg12
S'jere.overdyke@enron.com'
p280
sg14
I135836
sg15
g5
sg16
g5
sg17
g5
sg18
g5
sg19
I176
sg20
g5
sg21
F0.0
sg22
g5
sg23
I7307594
sg24
g5
sg25
g5
sg26
I2041016
sg27
I94941
sg28
I249787
sg29
I5266578
ssS'PEREIRA PAULO V. FERRAZ'
p281
(dp282
g3
g5
sg4
g5
sg6
g7
sg8
I27942
sg9
F0.0
sg10
I00
sg11
I-101250
sg12
g5
sg14
g5
sg15
g5
sg16
g5
sg17
g5
sg18
g5
sg19
g5
sg20
I101250
sg21
F0.0
sg22
g5
sg23
g5
sg24
g5
sg25
g5
sg26
g5
sg27
g5
sg28
I27942
sg29
g5
ssS'STABLER FRANK'
p283
(dp284
g3
g5
sg4
g5
sg6
g7
sg8
I16514
sg9
F0.0
sg10
I00
sg11
g5
sg12
S'frank.stabler@enron.com'
p285
sg14
g5
sg15
g5
sg16
g5
sg17
g5
sg18
g5
sg19
I356071
sg20
g5
sg21
F0.0
sg22
I500000
sg23
I511734
sg24
g5
sg25
g5
sg26
I511734
sg27
I239502
sg28
I1112087
sg29
g5
ssS'SKILLING JEFFREY K'
p286
(dp287
g3
I3627
sg4
g5
sg6
I46454930
sg8
I29336
sg9
F0.2777777777777778
sg10
I01
sg11
g5
sg12
S'jeff.skilling@enron.com'
p288
sg14
I1920000
sg15
g5
sg16
I2042
sg17
g5
sg18
I108
sg19
I22122
sg20
g5
sg21
F0.0242624758753791
sg22
I5600000
sg23
I26093672
sg24
I88
sg25
I30
sg26
I6843672
sg27
I1111258
sg28
I8682716
sg29
I19250000
ssS'BLAKE JR. NORMAN P'
p289
(dp290
g3
g5
sg4
g5
sg6
g7
sg8
I1279
sg9
F0.0
sg10
I00
sg11
I-113784
sg12
g5
sg14
g5
sg15
g5
sg16
g5
sg17
g5
sg18
g5
sg19
g5
sg20
I113784
sg21
F0.0
sg22
g5
sg23
g5
sg24
g5
sg25
g5
sg26
g5
sg27
g5
sg28
I1279
sg29
g5
ssS'SHERRICK JEFFREY B'
p291
(dp292
g3
I613
sg4
g5
sg6
g7
sg8
g5
sg9
F0.72
sg10
I00
sg11
g5
sg12
S'jeffrey.sherrick@enron.com'
p293
sg14
g5
sg15
g5
sg16
I583
sg17
g5
sg18
I25
sg19
g5
sg20
g5
sg21
F0.0636215334420881
sg22
g5
sg23
I1832468
sg24
I39
sg25
I18
sg26
I405999
sg27
g5
sg28
g5
sg29
I1426469
ssS'PRENTICE JAMES'
p294
(dp295
g3
g5
sg4
I564348
sg6
g7
sg8
g5
sg9
F0.0
sg10
I00
sg11
g5
sg12
S'james.prentice@enron.com'
p296
sg14
g5
sg15
g5
sg16
g5
sg17
g5
sg18
g5
sg19
g5
sg20
g5
sg21
F0.0
sg22
g5
sg23
I1095040
sg24
g5
sg25
g5
sg26
I208809
sg27
g5
sg28
I564348
sg29
I886231
ssS'GRAY RODNEY'
p297
(dp298
g3
g5
sg4
I93585
sg6
g7
sg8
g5
sg9
F0.0
sg10
I00
sg11
g5
sg12
g5
sg14
I365625
sg15
g5
sg16
g5
sg17
g5
sg18
g5
sg19
I680833
sg20
g5
sg21
F0.0
sg22
g5
sg23
g5
sg24
g5
sg25
g5
sg26
g5
sg27
I6615
sg28
I1146658
sg29
g5
ssS'UMANOFF ADAM S'
p299
(dp300
g3
I111
sg4
g5
sg6
g7
sg8
I53122
sg9
F0.0
sg10
I00
sg11
g5
sg12
S'adam.umanoff@enron.com'
p301
sg14
g5
sg15
g5
sg16
I41
sg17
g5
sg18
I18
sg19
g5
sg20
g5
sg21
F0.10810810810810811
sg22
I788750
sg23
g5
sg24
I12
sg25
I0
sg26
g5
sg27
I288589
sg28
I1130461
sg29
g5
ssS'KEAN STEVEN J'
p302
(dp303
g3
I12754
sg4
g5
sg6
I8580028
sg8
I41953
sg9
F0.05725699067909454
sg10
I00
sg11
g5
sg12
S'steven.kean@enron.com'
p304
sg14
I300000
sg15
g5
sg16
I3639
sg17
g5
sg18
I6759
sg19
I1231
sg20
g5
sg21
F0.010976948408342482
sg22
I1000000
sg23
I6153642
sg24
I140
sg25
I387
sg26
I4131594
sg27
I404338
sg28
I1747522
sg29
I2022048
ssS'FOWLER PEGGY'
p305
(dp306
g3
I517
sg4
g5
sg6
g7
sg8
g5
sg9
F0.0
sg10
I00
sg11
g5
sg12
S'kulvinder.fowler@enron.com'
p307
sg14
g5
sg15
g5
sg16
I10
sg17
g5
sg18
I36
sg19
g5
sg20
g5
sg21
F0.0
sg22
g5
sg23
I1884748
sg24
I0
sg25
I0
sg26
I560170
sg27
g5
sg28
g5
sg29
I1324578
ssS'WASAFF GEORGE'
p308
(dp309
g3
I400
sg4
I831299
sg6
I3984683
sg8
g5
sg9
F0.23333333333333334
sg10
I00
sg11
I-583325
sg12
S'george.wasaff@enron.com'
p310
sg14
I200000
sg15
g5
sg16
I337
sg17
g5
sg18
I30
sg19
I1425
sg20
g5
sg21
F0.055
sg22
I325000
sg23
I2056427
sg24
I22
sg25
I7
sg26
I388167
sg27
I259996
sg28
I1034395
sg29
I1668260
ssS'WHITE JR THOMAS E'
p311
(dp312
g3
g5
sg4
g5
sg6
I16758715
sg8
I81353
sg9
F0.0
sg10
I00
sg11
g5
sg12
S'thomas.white@enron.com'
p313
sg14
g5
sg15
g5
sg16
g5
sg17
g5
sg18
g5
sg19
I1085463
sg20
g5
sg21
F0.0
sg22
I450000
sg23
I15144123
sg24
g5
sg25
g5
sg26
I13847074
sg27
I317543
sg28
I1934359
sg29
I1297049
ssS'CHRISTODOULOU DIOMEDES'
p314
(dp315
g3
g5
sg4
g5
sg6
g7
sg8
g5
sg9
F0.0
sg10
I00
sg11
g5
sg12
S'diomedes.christodoulou@enron.com'
p316
sg14
g5
sg15
g5
sg16
g5
sg17
g5
sg18
g5
sg19
g5
sg20
g5
sg21
F0.0
sg22
g5
sg23
I6077885
sg24
g5
sg25
g5
sg26
I950730
sg27
g5
sg28
g5
sg29
I5127155
ssS'ALLEN PHILLIP K'
p317
(dp318
g3
I2902
sg4
I2869717
sg6
I3661037
sg8
I13868
sg9
F0.029612756264236904
sg10
I00
sg11
I-3081055
sg12
S'phillip.allen@enron.com'
p319
sg14
I304805
sg15
I-126027
sg16
I1407
sg17
g5
sg18
I2195
sg19
I152
sg20
g5
sg21
F0.016195727084769126
sg22
I4175000
sg23
I1729541
sg24
I47
sg25
I65
sg26
I126027
sg27
I201955
sg28
I4484442
sg29
I1729541
ssS'SHARP VICTORIA T'
p320
(dp321
g3
I3136
sg4
I187469
sg6
I1023355
sg8
I116337
sg9
F0.04411764705882353
sg10
I00
sg11
g5
sg12
S'vicki.sharp@enron.com'
p322
sg14
I422158
sg15
g5
sg16
I2477
sg17
g5
sg18
I136
sg19
I2401
sg20
g5
sg21
F0.007653061224489796
sg22
I600000
sg23
I494136
sg24
I24
sg25
I6
sg26
I213063
sg27
I248146
sg28
I1576511
sg29
I281073
ssS'JAEDICKE ROBERT'
p323
(dp324
g3
g5
sg4
g5
sg6
g7
sg8
g5
sg9
F0.0
sg10
I00
sg11
I-25000
sg12
g5
sg14
g5
sg15
I-44093
sg16
g5
sg17
g5
sg18
g5
sg19
g5
sg20
I108750
sg21
F0.0
sg22
g5
sg23
I431750
sg24
g5
sg25
g5
sg26
I44093
sg27
g5
sg28
I83750
sg29
I431750
ssS'WINOKUR JR. HERBERT S'
p325
(dp326
g3
g5
sg4
g5
sg6
g7
sg8
I1413
sg9
F0.0
sg10
I00
sg11
I-25000
sg12
g5
sg14
g5
sg15
g5
sg16
g5
sg17
g5
sg18
g5
sg19
g5
sg20
I108579
sg21
F0.0
sg22
g5
sg23
g5
sg24
g5
sg25
g5
sg26
g5
sg27
g5
sg28
I84992
sg29
g5
ssS'BROWN MICHAEL'
p327
(dp328
g3
I1486
sg4
g5
sg6
g7
sg8
I49288
sg9
F0.024390243902439025
sg10
I00
sg11
g5
sg12
S'michael.brown@enron.com'
p329
sg14
g5
sg15
g5
sg16
I761
sg17
g5
sg18
I41
sg19
g5
sg20
g5
sg21
F0.008748317631224764
sg22
g5
sg23
g5
sg24
I13
sg25
I1
sg26
g5
sg27
g5
sg28
I49288
sg29
g5
ssS'MCCLELLAN GEORGE'
p330
(dp331
g3
I1744
sg4
g5
sg6
I1718039
sg8
I228763
sg9
F0.0
sg10
I00
sg11
I-125000
sg12
S'george.mcclellan@enron.com'
p332
sg14
g5
sg15
g5
sg16
I1469
sg17
g5
sg18
I49
sg19
I51587
sg20
g5
sg21
F0.02981651376146789
sg22
I900000
sg23
I947861
sg24
I52
sg25
I0
sg26
I441096
sg27
I263413
sg28
I1318763
sg29
I506765
ssS'HUGHES JAMES A'
p333
(dp334
g3
I719
sg4
g5
sg6
g7
sg8
g5
sg9
F0.14705882352941177
sg10
I00
sg11
g5
sg12
S'james.hughes@enron.com'
p335
sg14
g5
sg15
g5
sg16
I589
sg17
g5
sg18
I34
sg19
g5
sg20
g5
sg21
F0.048678720445062586
sg22
g5
sg23
I1118394
sg24
I35
sg25
I5
sg26
I363428
sg27
g5
sg28
g5
sg29
I754966
ssS'REYNOLDS LAWRENCE'
p336
(dp337
g3
g5
sg4
I51365
sg6
I8458962
sg8
I8409
sg9
F0.0
sg10
I00
sg11
I-200000
sg12
g5
sg14
I156250
sg15
I-140264
sg16
g5
sg17
g5
sg18
g5
sg19
I202052
sg20
g5
sg21
F0.0
sg22
I100000
sg23
I4221891
sg24
g5
sg25
g5
sg26
I201483
sg27
I76399
sg28
I394475
sg29
I4160672
ssS'PICKERING MARK R'
p338
(dp339
g3
I898
sg4
g5
sg6
I712633
sg8
I31653
sg9
F0.0
sg10
I00
sg11
g5
sg12
S'mark.pickering@enron.com'
p340
sg14
g5
sg15
g5
sg16
I728
sg17
I400000
sg18
I67
sg19
g5
sg20
g5
sg21
F0.0077951002227171495
sg22
I300000
sg23
I28798
sg24
I7
sg25
I0
sg26
g5
sg27
I655037
sg28
I1386690
sg29
I28798
ssS'BHATNAGAR SANJAY'
p341
(dp342
g3
I523
sg4
g5
sg6
g7
sg8
g5
sg9
F0.034482758620689655
sg10
I00
sg11
g5
sg12
S'sanjay.bhatnagar@enron.com'
p343
sg14
g5
sg15
I15456290
sg16
I463
sg17
g5
sg18
I29
sg19
I137864
sg20
I137864
sg21
F0.0
sg22
g5
sS'total_stock_value'
p344
S'NaN'
p345
sg24
I0
sg25
I1
sg26
I-2604490
sg27
g5
sg28
I15456290
sg29
I2604490
ssS'CARTER REBECCA C'
p346
(dp347
g3
I312
sg4
g5
sg6
g7
sg8
g5
sg9
F0.4666666666666667
sg10
I00
sg11
I-159792
sg12
S'rebecca.carter@enron.com'
p348
sg14
I75000
sg15
I-307301
sg16
I196
sg17
g5
sg18
I15
sg19
I540
sg20
g5
sg21
F0.09294871794871795
sg22
I300000
sg23
g5
sg24
I29
sg25
I7
sg26
I307301
sg27
I261809
sg28
I477557
sg29
g5
ssS'BUCHANAN HAROLD G'
p349
(dp350
g3
I1088
sg4
g5
sg6
I2087986
sg8
I600
sg9
F0.0
sg10
I00
sg11
g5
sg12
S'john.buchanan@enron.com'
p351
sg14
I304805
sg15
g5
sg16
I23
sg17
g5
sg18
I125
sg19
I1215
sg20
g5
sg21
F0.0
sg22
I500000
sg23
I1014505
sg24
I0
sg25
I0
sg26
I189041
sg27
I248017
sg28
I1054637
sg29
I825464
ssS'YEAP SOON'
p352
(dp353
g3
g5
sg4
g5
sg6
g7
sg8
I55097
sg9
F0.0
sg10
I00
sg11
g5
sg12
g5
sg14
g5
sg15
g5
sg16
g5
sg17
g5
sg18
g5
sg19
g5
sg20
g5
sg21
F0.0
sg22
g5
sg23
I192758
sg24
g5
sg25
g5
sg26
g5
sg27
g5
sg28
I55097
sg29
I192758
ssS'MURRAY JULIA H'
p354
(dp355
g3
I2192
sg4
g5
sg6
I1227223
sg8
I57580
sg9
F0.044444444444444446
sg10
I00
sg11
g5
sg12
S'julia.murray@enron.com'
p356
sg14
I125000
sg15
g5
sg16
I395
sg17
g5
sg18
I45
sg19
I330
sg20
g5
sg21
F0.005018248175182482
sg22
I400000
sg23
I597461
sg24
I11
sg25
I2
sg26
I196983
sg27
I229284
sg28
I812194
sg29
I400478
ssS'GARLAND C KEVIN'
p357
(dp358
g3
I209
sg4
g5
sg6
I1764345
sg8
I48405
sg9
F0.6136363636363636
sg10
I00
sg11
g5
sg12
S'kevin.garland@enron.com'
p359
sg14
I375304
sg15
g5
sg16
I178
sg17
g5
sg18
I44
sg19
I60814
sg20
g5
sg21
F0.04784688995215311
sg22
I850000
sg23
I896153
sg24
I10
sg25
I27
sg26
I259907
sg27
I231946
sg28
I1566469
sg29
I636246
ssS'DODSON KEITH'
p360
(dp361
g3
I176
sg4
g5
sg6
g7
sg8
I28164
sg9
F0.21428571428571427
sg10
I00
sg11
g5
sg12
S'keith.dodson@enron.com'
p362
sg14
g5
sg15
g5
sg16
I114
sg17
g5
sg18
I14
sg19
I774
sg20
g5
sg21
F0.056818181818181816
sg22
I70000
sg23
g5
sg24
I10
sg25
I3
sg26
g5
sg27
I221003
sg28
I319941
sg29
g5
ssS'YEAGER F SCOTT'
p363
(dp364
g3
g5
sg4
g5
sg6
I20351713
sg8
I53947
sg9
F0.0
sg10
I01
sg11
g5
sg12
S'scott.yeager@enron.com'
p365
sg14
g5
sg15
g5
sg16
g5
sg17
g5
sg18
g5
sg19
I147950
sg20
g5
sg21
F0.0
sg22
g5
sg23
I11884758
sg24
g5
sg25
g5
sg26
I3576206
sg27
I158403
sg28
I360300
sg29
I8308552
ssS'HIRKO JOSEPH'
p366
(dp367
g3
g5
sg4
I10259
sg6
g7
sg8
I77978
sg9
F0.0
sg10
I01
sg11
g5
sg12
S'joe.hirko@enron.com'
p368
sg14
g5
sg15
g5
sg16
g5
sg17
g5
sg18
g5
sg19
I2856
sg20
g5
sg21
F0.0
sg22
g5
sg23
I30766064
sg24
g5
sg25
g5
sg26
g5
sg27
g5
sg28
I91093
sg29
I30766064
ssS'DIETRICH JANET R'
p369
(dp370
g3
I2572
sg4
g5
sg6
I3665206
sg8
I3475
sg9
F0.2222222222222222
sg10
I00
sg11
g5
sg12
S'janet.dietrich@enron.com'
p371
sg14
I556416
sg15
g5
sg16
I1902
sg17
g5
sg18
I63
sg19
I473
sg20
g5
sg21
F0.11858475894245724
sg22
I600000
sg23
I1865087
sg24
I305
sg25
I14
sg26
I315068
sg27
I250100
sg28
I1410464
sg29
I1550019
ssS'DERRICK JR. JAMES V'
p372
(dp373
g3
I2181
sg4
g5
sg6
I18156201
sg8
I51124
sg9
F0.022002200220022004
sg10
I00
sg11
I-1284000
sg12
S'james.derrick@enron.com'
p374
sg14
I484000
sg15
I-1787380
sg16
I1401
sg17
g5
sg18
I909
sg19
I7482
sg20
g5
sg21
F0.029344337459880788
sg22
I800000
sg23
I8831913
sg24
I64
sg25
I20
sg26
I1787380
sg27
I492375
sg28
I550981
sg29
I8831913
ssS'FREVERT MARK A'
p375
(dp376
g3
I3275
sg4
I6426990
sg6
I26116635
sg8
I86987
sg9
F0.2857142857142857
sg10
I00
sg11
I-3367011
sg12
S'mark.frevert@enron.com'
p377
sg14
I1617011
sg15
g5
sg16
I2979
sg17
I2000000
sg18
I21
sg19
I7427621
sg20
g5
sg21
F0.07389312977099237
sg22
I2000000
sg23
I14622185
sg24
I242
sg25
I6
sg26
I4188667
sg27
I1060932
sg28
I17252530
sg29
I10433518
ssS'PAI LOU L'
p378
(dp379
g3
g5
sg4
g5
sg6
I39443976
sg8
I32047
sg9
F0.0
sg10
I00
sg11
g5
sg12
S'lou.pai@enron.com'
p380
sg14
g5
sg15
g5
sg16
g5
sg17
g5
sg18
g5
sg19
I1829457
sg20
g5
sg21
F0.0
sg22
I1000000
sg23
I23817930
sg24
g5
sg25
g5
sg26
I8453763
sg27
I261879
sg28
I3123383
sg29
I15364167
ssS'HAYSLETT RODERICK J'
p381
(dp382
g3
I2649
sg4
g5
sg6
g7
sg8
g5
sg9
F0.03581526861451461
sg10
I00
sg11
g5
sg12
S'rod.hayslett@enron.com'
p383
sg14
g5
sg15
g5
sg16
I571
sg17
g5
sg18
I1061
sg19
g5
sg20
g5
sg21
F0.01321253303133258
sg22
g5
sg23
I346663
sg24
I35
sg25
I38
sg26
I346663
sg27
g5
sg28
g5
sg29
g5
ssS'BAY FRANKLIN R'
p384
(dp385
g3
g5
sg4
I260455
sg6
g7
sg8
I129142
sg9
F0.0
sg10
I00
sg11
I-201641
sg12
S'frank.bay@enron.com'
p386
sg14
g5
sg15
I-82782
sg16
g5
sg17
g5
sg18
g5
sg19
I69
sg20
g5
sg21
F0.0
sg22
I400000
sg23
I63014
sg24
g5
sg25
g5
sg26
I145796
sg27
I239671
sg28
I827696
sg29
g5
ssS'MCCARTY DANNY J'
p387
(dp388
g3
I1433
sg4
g5
sg6
g7
sg8
g5
sg9
F0.009302325581395349
sg10
I00
sg11
g5
sg12
S'danny.mccarty@enron.com'
p389
sg14
g5
sg15
g5
sg16
I508
sg17
g5
sg18
I215
sg19
g5
sg20
g5
sg21
F0.017445917655268667
sg22
g5
sg23
I758931
sg24
I25
sg25
I2
sg26
I94556
sg27
g5
sg28
g5
sg29
I664375
ssS'FUGH JOHN L'
p390
(dp391
g3
g5
sg4
I50591
sg6
g7
sg8
g5
sg9
F0.0
sg10
I00
sg11
g5
sg12
g5
sg14
g5
sg15
g5
sg16
g5
sg17
g5
sg18
g5
sg19
g5
sg20
g5
sg21
F0.0
sg22
g5
sg23
I176378
sg24
g5
sg25
g5
sg26
g5
sg27
g5
sg28
I50591
sg29
I176378
ssS'SCRIMSHAW MATTHEW'
p392
(dp393
g3
g5
sg4
g5
sg6
g7
sg8
g5
sg9
F0.0
sg10
I00
sg11
g5
sg12
S'matthew.scrimshaw@enron.com'
p394
sg14
g5
sg15
g5
sg16
g5
sg17
g5
sg18
g5
sg19
g5
sg20
g5
sg21
F0.0
sg22
g5
sg23
I759557
sg24
g5
sg25
g5
sg26
g5
sg27
g5
sg28
g5
sg29
I759557
ssS'KOENIG MARK E'
p395
(dp396
g3
I2374
sg4
g5
sg6
I2901738
sg8
I127017
sg9
F0.2459016393442623
sg10
I01
sg11
g5
sg12
S'mark.koenig@enron.com'
p397
sg14
I300000
sg15
g5
sg16
I2271
sg17
g5
sg18
I61
sg19
I150458
sg20
g5
sg21
F0.02232518955349621
sg22
I700000
sg23
I1920055
sg24
I53
sg25
I15
sg26
I1248318
sg27
I309946
sg28
I1587421
sg29
I671737
ssS'SAVAGE FRANK'
p398
(dp399
g3
g5
sg4
g5
sg6
g7
sg8
g5
sg9
F0.0
sg10
I00
sg11
I-121284
sg12
g5
sg14
g5
sg15
g5
sg16
g5
sg17
g5
sg18
g5
sg19
g5
sg20
I125034
sg21
F0.0
sg22
g5
sg23
g5
sg24
g5
sg25
g5
sg26
g5
sg27
g5
sg28
I3750
sg29
g5
ssS'IZZO LAWRENCE L'
p400
(dp401
g3
I496
sg4
g5
sg6
I8070426
sg8
I28093
sg9
F0.2631578947368421
sg10
I00
sg11
g5
sg12
S'larry.izzo@enron.com'
p402
sg14
I312500
sg15
g5
sg16
I437
sg17
g5
sg18
I19
sg19
I1553729
sg20
g5
sg21
F0.056451612903225805
sg22
g5
sg23
I5819980
sg24
I28
sg25
I5
sg26
I3654808
sg27
I85274
sg28
I1979596
sg29
I2165172
ssS'TILNEY ELIZABETH A'
p403
(dp404
g3
I460
sg4
g5
sg6
I2006630
sg8
g5
sg9
F0.5789473684210527
sg10
I00
sg11
I-575000
sg12
S'elizabeth.tilney@enron.com'
p405
sg14
I275000
sg15
g5
sg16
I379
sg17
g5
sg18
I19
sg19
I152055
sg20
g5
sg21
F0.021739130434782608
sg22
I300000
sg23
I1168042
sg24
I10
sg25
I11
sg26
I576792
sg27
I247338
sg28
I399393
sg29
I591250
ssS'MARTIN AMANDA K'
p406
(dp407
g3
I1522
sg4
I85430
sg6
I4490099
sg8
I8211
sg9
F0.0
sg10
I00
sg11
g5
sg12
S'a..martin@enron.com'
p408
sg14
I5145434
sg15
g5
sg16
I477
sg17
g5
sg18
I230
sg19
I2818454
sg20
g5
sg21
F0.005256241787122208
sg22
g5
sg23
I2070306
sg24
I8
sg25
I0
sg26
g5
sg27
I349487
sg28
I8407016
sg29
I2070306
ssS'BUY RICHARD B'
p409
(dp410
g3
I3523
sg4
I649584
sg6
I6317829
sg8
g5
sg9
F0.06742640075973409
sg10
I00
sg11
I-694862
sg12
S'rick.buy@enron.com'
p411
sg14
I769862
sg15
g5
sg16
I2333
sg17
g5
sg18
I1053
sg19
I400572
sg20
g5
sg21
F0.04428044280442804
sg22
I900000
sg23
I3444470
sg24
I156
sg25
I71
sg26
I901657
sg27
I330546
sg28
I2355702
sg29
I2542813
ssS'GRAMM WENDY L'
p412
(dp413
g3
g5
sg4
g5
sg6
g7
sg8
g5
sg9
F0.0
sg10
I00
sg11
g5
sg12
g5
sg14
g5
sg15
g5
sg16
g5
sg17
g5
sg18
g5
sg19
g5
sg20
I119292
sg21
F0.0
sg22
g5
sg23
g5
sg24
g5
sg25
g5
sg26
g5
sg27
g5
sg28
I119292
sg29
g5
ssS'CAUSEY RICHARD A'
p414
(dp415
g3
I1892
sg4
g5
sg6
g7
sg8
I30674
sg9
F0.24489795918367346
sg10
I01
sg11
I-235000
sg12
S'richard.causey@enron.com'
p416
sg14
I350000
sg15
g5
sg16
I1585
sg17
g5
sg18
I49
sg19
I307895
sg20
g5
sg21
F0.0306553911205074
sg22
I1000000
sg23
I2502063
sg24
I58
sg25
I12
sg26
I2502063
sg27
I415189
sg28
I1868758
sg29
g5
ssS'TAYLOR MITCHELL S'
p417
(dp418
g3
I533
sg4
I227449
sg6
I7191512
sg8
g5
sg9
F0.0
sg10
I00
sg11
g5
sg12
S'mitchell.taylor@enron.com'
p419
sg14
g5
sg15
g5
sg16
I300
sg17
g5
sg18
I29
sg19
g5
sg20
g5
sg21
F0.0
sg22
I600000
sg23
I3745048
sg24
I0
sg25
I0
sg26
I563798
sg27
I265214
sg28
I1092663
sg29
I3181250
ssS'DONAHUE JR JEFFREY M'
p420
(dp421
g3
I865
sg4
g5
sg6
I2125509
sg8
I96268
sg9
F0.5
sg10
I00
sg11
I-300000
sg12
S'jeff.donahue@enron.com'
p422
sg14
g5
sg15
g5
sg16
I772
sg17
g5
sg18
I22
sg19
I891
sg20
g5
sg21
F0.21734104046242775
sg22
I800000
sg23
I1080988
sg24
I188
sg25
I11
sg26
I315068
sg27
I278601
sg28
I875760
sg29
I765920
ssS'GLISAN JR BEN F'
p423
(dp424
g3
I873
sg4
g5
sg6
I1438249
sg8
I125978
sg9
F0.375
sg10
I01
sg11
g5
sg12
S'ben.glisan@enron.com'
p425
sg14
I71023
sg15
g5
sg16
I874
sg17
g5
sg18
I16
sg19
I200308
sg20
g5
sg21
F0.05956471935853379
sg22
I600000
sg23
I778546
sg24
I52
sg25
I6
sg26
I393818
sg27
I274975
sg28
I1272284
sg29
I384728
ss.