(lp0
S'poi'
p1
aS'salary'
p2
aS'email_interaction'
p3
aS'total_payments'
p4
aS'loan_advances'
p5
aS'bonus'
p6
aS'financial_aggregate'
p7
aS'total_stock_value'
p8
aS'shared_receipt_with_poi'
p9
aS'from_poi_to_this_person'
p10
aS'exercised_stock_options'
p11
aS'deferred_income'
p12
aS'expenses'
p13
aS'restricted_stock'
p14
aS'long_term_incentive'
p15
aS'fraction_from_poi_email'
p16
aS'fraction_to_poi_email'
p17
a.