(lp0
S'poi'
p1
aS'salary'
p2
aS'total_payments'
p3
aS'loan_advances'
p4
aS'bonus'
p5
aS'financial_aggregate'
p6
aS'total_stock_value'
p7
aS'shared_receipt_with_poi'
p8
aS'from_poi_to_this_person'
p9
aS'exercised_stock_options'
p10
aS'deferred_income'
p11
aS'expenses'
p12
aS'restricted_stock'
p13
aS'long_term_incentive'
p14
aS'fraction_from_poi_email'
p15
aS'fraction_to_poi_email'
p16
a.