(lp0
S'poi'
p1
aS'salary'
p2
aS'total_payments'
p3
aS'bonus'
p4
aS'total_stock_value'
p5
aS'exercised_stock_options'
p6
aS'deferred_income'
p7
aS'restricted_stock'
p8
aS'long_term_incentive'
p9
aS'shared_receipt_with_poi'
p10
aS'financial_aggregate'
p11
aS'email_interaction'
p12
a.